target datalayout = "e-m:e-p270:32:32-p271:32:32-p272:64:64-i64:64-i128:128-f80:128-n8:16:32:64-S128"
target triple = "x86_64-pc-linux-gnu"

%struct.GlobalContext = type { %struct.HTable, ptr, ptr, ptr, ptr, ptr, ptr, ptr, ptr, i8, i32, i32, i32, ptr, ptr, %struct.HTable, %struct.HTable, %struct.Module_, %struct.DeclTable, %struct.DeclTable, %struct.Path_, ptr, ptr, ptr, ptr, ptr, ptr, ptr, [65536 x ptr], ptr, ptr, ptr }
%struct.HTable = type { i32, ptr }
%struct.Module_ = type { ptr, ptr, ptr, i16, i32, ptr, %struct.HTable, ptr, ptr, ptr, ptr, ptr, ptr, ptr, ptr, ptr }
%struct.DeclTable = type { i32, i32, i32, ptr }
%struct.Path_ = type { %union.SourceSpan, ptr, i32 }
%union.SourceSpan = type { i64 }
%struct.VHeader_ = type { i32, i32, [0 x i8] }
%struct.NameResolve = type { ptr, ptr, ptr, ptr, %union.SourceSpan, ptr, i8, i8 }
%struct.SemaContext_ = type { ptr, ptr, ptr, %struct.CallEnv, ptr, %union.SourceSpan, i32, i32, ptr, i32, ptr, i32, i32, ptr, ptr, i32, %struct.anon.89, ptr, ptr, ptr, %struct.DynamicScope_, ptr }
%struct.CallEnv = type { i16, ptr, %union.anon.60 }
%union.anon.60 = type { ptr }
%struct.anon.89 = type { i32, ptr, ptr, ptr, ptr, ptr, ptr, ptr, ptr, ptr, i8, ptr }
%struct.DynamicScope_ = type { i32, i8, i32, i32, i32, i32, i32, ptr, i32 }

@global_context = external global %struct.GlobalContext, align 8
@poisoned_decl = external global ptr, align 8
@.str.16 = private unnamed_addr constant [31 x i8] c"'%s' could not be found in %s.\00", align 1
@.str.17 = private unnamed_addr constant [46 x i8] c"Unknown module '%.*s', did you type it right?\00", align 1

; Function Attrs: nounwind uwtable
define internal zeroext i1 @matches_subpath(ptr noundef %0, ptr noundef %1) #0 {
  %3 = alloca i1, align 1
  %4 = alloca ptr, align 8
  %5 = alloca ptr, align 8
  %6 = alloca i64, align 8
  store ptr %0, ptr %4, align 8
  store ptr %1, ptr %5, align 8
  %7 = load ptr, ptr %5, align 8
  %8 = getelementptr inbounds %struct.Path_, ptr %7, i32 0, i32 1
  %9 = load ptr, ptr %8, align 8
  %10 = load ptr, ptr %4, align 8
  %11 = getelementptr inbounds %struct.Path_, ptr %10, i32 0, i32 1
  %12 = load ptr, ptr %11, align 8
  %13 = icmp eq ptr %9, %12
  br i1 %13, label %14, label %15

14:                                               ; preds = %2
  store i1 true, ptr %3, align 1
  br label %64

15:                                               ; preds = %2
  %16 = load ptr, ptr %4, align 8
  %17 = getelementptr inbounds %struct.Path_, ptr %16, i32 0, i32 2
  %18 = load i32, ptr %17, align 8
  %19 = zext i32 %18 to i64
  %20 = load ptr, ptr %5, align 8
  %21 = getelementptr inbounds %struct.Path_, ptr %20, i32 0, i32 2
  %22 = load i32, ptr %21, align 8
  %23 = zext i32 %22 to i64
  %24 = sub nsw i64 %19, %23
  store i64 %24, ptr %6, align 8
  %25 = load i64, ptr %6, align 8
  %26 = icmp slt i64 %25, 3
  br i1 %26, label %27, label %28

27:                                               ; preds = %15
  store i1 false, ptr %3, align 1
  br label %64

28:                                               ; preds = %15
  %29 = load ptr, ptr %4, align 8
  %30 = getelementptr inbounds %struct.Path_, ptr %29, i32 0, i32 1
  %31 = load ptr, ptr %30, align 8
  %32 = load i64, ptr %6, align 8
  %33 = sub nsw i64 %32, 1
  %34 = getelementptr inbounds i8, ptr %31, i64 %33
  %35 = load i8, ptr %34, align 1
  %36 = sext i8 %35 to i32
  %37 = icmp ne i32 %36, 58
  br i1 %37, label %48, label %38

38:                                               ; preds = %28
  %39 = load ptr, ptr %4, align 8
  %40 = getelementptr inbounds %struct.Path_, ptr %39, i32 0, i32 1
  %41 = load ptr, ptr %40, align 8
  %42 = load i64, ptr %6, align 8
  %43 = sub nsw i64 %42, 2
  %44 = getelementptr inbounds i8, ptr %41, i64 %43
  %45 = load i8, ptr %44, align 1
  %46 = sext i8 %45 to i32
  %47 = icmp ne i32 %46, 58
  br i1 %47, label %48, label %49

48:                                               ; preds = %38, %28
  store i1 false, ptr %3, align 1
  br label %64

49:                                               ; preds = %38
  %50 = load ptr, ptr %4, align 8
  %51 = getelementptr inbounds %struct.Path_, ptr %50, i32 0, i32 1
  %52 = load ptr, ptr %51, align 8
  %53 = load i64, ptr %6, align 8
  %54 = getelementptr inbounds i8, ptr %52, i64 %53
  %55 = load ptr, ptr %5, align 8
  %56 = getelementptr inbounds %struct.Path_, ptr %55, i32 0, i32 1
  %57 = load ptr, ptr %56, align 8
  %58 = load ptr, ptr %5, align 8
  %59 = getelementptr inbounds %struct.Path_, ptr %58, i32 0, i32 2
  %60 = load i32, ptr %59, align 8
  %61 = zext i32 %60 to i64
  %62 = call i32 @memcmp(ptr noundef %54, ptr noundef %57, i64 noundef %61) #8
  %63 = icmp eq i32 0, %62
  store i1 %63, ptr %3, align 1
  br label %64

64:                                               ; preds = %49, %48, %27, %14
  %65 = load i1, ptr %3, align 1
  ret i1 %65
}

; Function Attrs: nounwind uwtable
define dso_local ptr @sema_find_path_symbol(ptr noundef %0, ptr noundef %1, ptr noundef %2) #0 {
  %4 = alloca i32, align 4
  %5 = alloca ptr, align 8
  %6 = alloca ptr, align 8
  %7 = alloca i32, align 4
  %8 = alloca ptr, align 8
  %9 = alloca ptr, align 8
  %10 = alloca ptr, align 8
  %11 = alloca ptr, align 8
  %12 = alloca ptr, align 8
  %13 = alloca ptr, align 8
  %14 = alloca i8, align 1
  %15 = alloca ptr, align 8
  %16 = alloca ptr, align 8
  %17 = alloca i32, align 4
  %18 = alloca i32, align 4
  %19 = alloca ptr, align 8
  %20 = alloca ptr, align 8
  %21 = alloca i32, align 4
  %22 = alloca i32, align 4
  %23 = alloca ptr, align 8
  %24 = alloca ptr, align 8
  %25 = alloca ptr, align 8
  %26 = alloca ptr, align 8
  %27 = alloca %struct.NameResolve, align 8
  store ptr %0, ptr %24, align 8
  store ptr %1, ptr %25, align 8
  store ptr %2, ptr %26, align 8
  %28 = getelementptr inbounds %struct.NameResolve, ptr %27, i32 0, i32 0
  store ptr null, ptr %28, align 8
  %29 = getelementptr inbounds %struct.NameResolve, ptr %27, i32 0, i32 1
  store ptr null, ptr %29, align 8
  %30 = getelementptr inbounds %struct.NameResolve, ptr %27, i32 0, i32 2
  store ptr null, ptr %30, align 8
  %31 = getelementptr inbounds %struct.NameResolve, ptr %27, i32 0, i32 3
  %32 = load ptr, ptr %26, align 8
  store ptr %32, ptr %31, align 8
  %33 = getelementptr inbounds %struct.NameResolve, ptr %27, i32 0, i32 4
  call void @llvm.memset.p0.i64(ptr align 8 %33, i8 0, i64 8, i1 false)
  %34 = getelementptr inbounds %struct.NameResolve, ptr %27, i32 0, i32 5
  %35 = load ptr, ptr %25, align 8
  store ptr %35, ptr %34, align 8
  %36 = getelementptr inbounds %struct.NameResolve, ptr %27, i32 0, i32 6
  store i8 0, ptr %36, align 8
  %37 = getelementptr inbounds %struct.NameResolve, ptr %27, i32 0, i32 7
  store i8 1, ptr %37, align 1
  %38 = load ptr, ptr %24, align 8
  store ptr %38, ptr %11, align 8
  store ptr %27, ptr %12, align 8
  %39 = load ptr, ptr %12, align 8
  store ptr null, ptr %39, align 8
  %40 = load ptr, ptr %12, align 8
  %41 = getelementptr inbounds %struct.NameResolve, ptr %40, i32 0, i32 1
  store ptr null, ptr %41, align 8
  %42 = load ptr, ptr %12, align 8
  %43 = getelementptr inbounds %struct.NameResolve, ptr %42, i32 0, i32 6
  store i8 0, ptr %43, align 8
  %44 = load ptr, ptr %12, align 8
  %45 = getelementptr inbounds %struct.NameResolve, ptr %44, i32 0, i32 3
  %46 = load ptr, ptr %45, align 8
  %47 = icmp ne ptr %46, null
  br i1 %47, label %48, label %174

48:                                               ; preds = %3
  %49 = load ptr, ptr %11, align 8
  %50 = load ptr, ptr %12, align 8
  %51 = call ptr @sema_resolve_path_symbol(ptr noundef %49, ptr noundef %50)
  store ptr %51, ptr %13, align 8
  %52 = load ptr, ptr %13, align 8
  %53 = icmp ne ptr %52, null
  br i1 %53, label %173, label %54

54:                                               ; preds = %48
  %55 = load ptr, ptr %12, align 8
  %56 = getelementptr inbounds %struct.NameResolve, ptr %55, i32 0, i32 2
  %57 = load ptr, ptr %56, align 8
  %58 = icmp ne ptr %57, null
  br i1 %58, label %173, label %59

59:                                               ; preds = %54
  %60 = load ptr, ptr %12, align 8
  %61 = getelementptr inbounds %struct.NameResolve, ptr %60, i32 0, i32 6
  %62 = load i8, ptr %61, align 8
  %63 = trunc i8 %62 to i1
  br i1 %63, label %173, label %64

64:                                               ; preds = %59
  %65 = load ptr, ptr %12, align 8
  %66 = getelementptr inbounds %struct.NameResolve, ptr %65, i32 0, i32 7
  %67 = load i8, ptr %66, align 1
  %68 = trunc i8 %67 to i1
  br i1 %68, label %69, label %70

69:                                               ; preds = %64
  store ptr null, ptr %10, align 8
  br label %201

70:                                               ; preds = %64
  store i8 0, ptr %14, align 1
  store ptr null, ptr %15, align 8
  %71 = load ptr, ptr getelementptr inbounds (%struct.GlobalContext, ptr @global_context, i32 0, i32 2), align 8
  store ptr %71, ptr %16, align 8
  %72 = load ptr, ptr %16, align 8
  store ptr %72, ptr %5, align 8
  %73 = load ptr, ptr %5, align 8
  %74 = icmp ne ptr %73, null
  br i1 %74, label %76, label %75

75:                                               ; preds = %70
  store i32 0, ptr %4, align 4
  br label %81

76:                                               ; preds = %70
  %77 = load ptr, ptr %5, align 8
  store ptr %77, ptr %6, align 8
  %78 = load ptr, ptr %6, align 8
  %79 = getelementptr inbounds %struct.VHeader_, ptr %78, i64 -1
  %80 = load i32, ptr %79, align 4
  store i32 %80, ptr %4, align 4
  br label %81

81:                                               ; preds = %76, %75
  %82 = load i32, ptr %4, align 4
  store i32 %82, ptr %17, align 4
  store i32 0, ptr %18, align 4
  br label %83

83:                                               ; preds = %101, %81
  %84 = load i32, ptr %18, align 4
  %85 = load i32, ptr %17, align 4
  %86 = icmp ult i32 %84, %85
  br i1 %86, label %87, label %104

87:                                               ; preds = %83
  %88 = load ptr, ptr %16, align 8
  %89 = load i32, ptr %18, align 4
  %90 = zext i32 %89 to i64
  %91 = getelementptr inbounds ptr, ptr %88, i64 %90
  %92 = load ptr, ptr %91, align 8
  store ptr %92, ptr %19, align 8
  %93 = load ptr, ptr %19, align 8
  %94 = load ptr, ptr %93, align 8
  %95 = load ptr, ptr %12, align 8
  %96 = getelementptr inbounds %struct.NameResolve, ptr %95, i32 0, i32 3
  %97 = load ptr, ptr %96, align 8
  %98 = call zeroext i1 @matches_subpath(ptr noundef %94, ptr noundef %97)
  br i1 %98, label %99, label %101

99:                                               ; preds = %87
  %100 = load ptr, ptr %19, align 8
  store ptr %100, ptr %15, align 8
  br label %104

101:                                              ; preds = %87
  %102 = load i32, ptr %18, align 4
  %103 = add i32 %102, 1
  store i32 %103, ptr %18, align 4
  br label %83, !llvm.loop !30

104:                                              ; preds = %99, %83
  %105 = load ptr, ptr %15, align 8
  %106 = icmp ne ptr %105, null
  br i1 %106, label %142, label %107

107:                                              ; preds = %104
  %108 = load ptr, ptr getelementptr inbounds (%struct.GlobalContext, ptr @global_context, i32 0, i32 3), align 8
  store ptr %108, ptr %20, align 8
  %109 = load ptr, ptr %20, align 8
  store ptr %109, ptr %8, align 8
  %110 = load ptr, ptr %8, align 8
  %111 = icmp ne ptr %110, null
  br i1 %111, label %113, label %112

112:                                              ; preds = %107
  store i32 0, ptr %7, align 4
  br label %118

113:                                              ; preds = %107
  %114 = load ptr, ptr %8, align 8
  store ptr %114, ptr %9, align 8
  %115 = load ptr, ptr %9, align 8
  %116 = getelementptr inbounds %struct.VHeader_, ptr %115, i64 -1
  %117 = load i32, ptr %116, align 4
  store i32 %117, ptr %7, align 4
  br label %118

118:                                              ; preds = %113, %112
  %119 = load i32, ptr %7, align 4
  store i32 %119, ptr %21, align 4
  store i32 0, ptr %22, align 4
  br label %120

120:                                              ; preds = %138, %118
  %121 = load i32, ptr %22, align 4
  %122 = load i32, ptr %21, align 4
  %123 = icmp ult i32 %121, %122
  br i1 %123, label %124, label %141

124:                                              ; preds = %120
  %125 = load ptr, ptr %20, align 8
  %126 = load i32, ptr %22, align 4
  %127 = zext i32 %126 to i64
  %128 = getelementptr inbounds ptr, ptr %125, i64 %127
  %129 = load ptr, ptr %128, align 8
  store ptr %129, ptr %23, align 8
  %130 = load ptr, ptr %23, align 8
  %131 = load ptr, ptr %130, align 8
  %132 = load ptr, ptr %12, align 8
  %133 = getelementptr inbounds %struct.NameResolve, ptr %132, i32 0, i32 3
  %134 = load ptr, ptr %133, align 8
  %135 = call zeroext i1 @matches_subpath(ptr noundef %131, ptr noundef %134)
  br i1 %135, label %136, label %138

136:                                              ; preds = %124
  %137 = load ptr, ptr %23, align 8
  store ptr %137, ptr %15, align 8
  br label %141

138:                                              ; preds = %124
  %139 = load i32, ptr %22, align 4
  %140 = add i32 %139, 1
  store i32 %140, ptr %22, align 4
  br label %120, !llvm.loop !31

141:                                              ; preds = %136, %120
  br label %142

142:                                              ; preds = %141, %104
  %143 = load ptr, ptr %15, align 8
  %144 = icmp ne ptr %143, null
  br i1 %144, label %145, label %156

145:                                              ; preds = %142
  %146 = load ptr, ptr %12, align 8
  %147 = getelementptr inbounds %struct.NameResolve, ptr %146, i32 0, i32 4
  %148 = load ptr, ptr %12, align 8
  %149 = getelementptr inbounds %struct.NameResolve, ptr %148, i32 0, i32 5
  %150 = load ptr, ptr %149, align 8
  %151 = load ptr, ptr %15, align 8
  %152 = load ptr, ptr %151, align 8
  %153 = getelementptr inbounds %struct.Path_, ptr %152, i32 0, i32 1
  %154 = load ptr, ptr %153, align 8
  %155 = load i64, ptr %147, align 8
  call void (i64, ptr, ...) @sema_error_at(i64 %155, ptr noundef @.str.16, ptr noundef %150, ptr noundef %154) #7
  br label %171

156:                                              ; preds = %142
  %157 = load ptr, ptr %12, align 8
  %158 = getelementptr inbounds %struct.NameResolve, ptr %157, i32 0, i32 3
  %159 = load ptr, ptr %158, align 8
  %160 = load ptr, ptr %12, align 8
  %161 = getelementptr inbounds %struct.NameResolve, ptr %160, i32 0, i32 3
  %162 = load ptr, ptr %161, align 8
  %163 = getelementptr inbounds %struct.Path_, ptr %162, i32 0, i32 2
  %164 = load i32, ptr %163, align 8
  %165 = load ptr, ptr %12, align 8
  %166 = getelementptr inbounds %struct.NameResolve, ptr %165, i32 0, i32 3
  %167 = load ptr, ptr %166, align 8
  %168 = getelementptr inbounds %struct.Path_, ptr %167, i32 0, i32 1
  %169 = load ptr, ptr %168, align 8
  %170 = load i64, ptr %159, align 8
  call void (i64, ptr, ...) @sema_error_at(i64 %170, ptr noundef @.str.17, i32 noundef %164, ptr noundef %169) #7
  br label %171

171:                                              ; preds = %156, %145
  %172 = load ptr, ptr @poisoned_decl, align 8
  store ptr %172, ptr %10, align 8
  br label %201

173:                                              ; preds = %59, %54, %48
  br label %178

174:                                              ; preds = %3
  %175 = load ptr, ptr %11, align 8
  %176 = load ptr, ptr %12, align 8
  %177 = call ptr @sema_resolve_no_path_symbol(ptr noundef %175, ptr noundef %176)
  store ptr %177, ptr %13, align 8
  br label %178

178:                                              ; preds = %174, %173
  %179 = load ptr, ptr %13, align 8
  %180 = icmp ne ptr %179, null
  br i1 %180, label %181, label %185

181:                                              ; preds = %178
  %182 = load ptr, ptr %12, align 8
  %183 = load ptr, ptr %182, align 8
  %184 = icmp ne ptr %183, null
  br i1 %184, label %185, label %195

185:                                              ; preds = %181, %178
  %186 = load ptr, ptr %12, align 8
  %187 = getelementptr inbounds %struct.NameResolve, ptr %186, i32 0, i32 7
  %188 = load i8, ptr %187, align 1
  %189 = trunc i8 %188 to i1
  br i1 %189, label %190, label %191

190:                                              ; preds = %185
  store ptr null, ptr %10, align 8
  br label %201

191:                                              ; preds = %185
  %192 = load ptr, ptr %13, align 8
  %193 = load ptr, ptr %12, align 8
  call void @sema_report_error_on_decl(ptr noundef %192, ptr noundef %193)
  %194 = load ptr, ptr @poisoned_decl, align 8
  store ptr %194, ptr %10, align 8
  br label %201

195:                                              ; preds = %181
  %196 = load ptr, ptr %11, align 8
  %197 = getelementptr inbounds %struct.SemaContext_, ptr %196, i32 0, i32 2
  %198 = load ptr, ptr %197, align 8
  %199 = load ptr, ptr %13, align 8
  call void @unit_register_external_symbol(ptr noundef %198, ptr noundef %199) #7
  %200 = load ptr, ptr %13, align 8
  store ptr %200, ptr %10, align 8
  br label %201

201:                                              ; preds = %195, %191, %190, %171, %69
  %202 = load ptr, ptr %10, align 8
  ret ptr %202
}