; Function Attrs: nounwind uwtable
define dso_local ptr @sema_find_path_symbol(ptr nocapture noundef readonly %0, ptr noundef %1, ptr noundef %2) local_unnamed_addr #2 {
  %4 = alloca %struct.NameResolve, align 8
  %5 = getelementptr inbounds i8, ptr %4, i64 16
  %6 = getelementptr inbounds i8, ptr %4, i64 24
  %7 = getelementptr inbounds i8, ptr %4, i64 16
  store i64 0, ptr %7, align 8
  store ptr %2, ptr %6, align 8
  %8 = getelementptr inbounds i8, ptr %4, i64 32
  store i64 0, ptr %8, align 8
  %9 = getelementptr inbounds i8, ptr %4, i64 40
  store ptr %1, ptr %9, align 8
  %10 = getelementptr inbounds i8, ptr %4, i64 48
  %11 = getelementptr inbounds i8, ptr %4, i64 49
  store i8 1, ptr %11, align 1
  store i8 0, ptr %10, align 8
  %.not = icmp eq ptr %2, null
  call void @llvm.memset.p0.i64(ptr noundef nonnull align 8 dereferenceable(16) %4, i8 0, i64 16, i1 false)
  br i1 %.not, label %92, label %12

12:                                               ; preds = %3
  %13 = call fastcc ptr @sema_resolve_path_symbol(ptr noundef %0, ptr noundef nonnull %4)
  %.not67 = icmp eq ptr %13, null
  br i1 %.not67, label %14, label %94

14:                                               ; preds = %12
  %15 = load ptr, ptr %5, align 8
  %.not68 = icmp eq ptr %15, null
  br i1 %.not68, label %16, label %.thread94

16:                                               ; preds = %14
  %17 = load i8, ptr %10, align 8
  %18 = trunc i8 %17 to i1
  br i1 %18, label %.thread94, label %19

19:                                               ; preds = %16
  %20 = load i8, ptr %11, align 1
  %21 = trunc i8 %20 to i1
  br i1 %21, label %103, label %22

22:                                               ; preds = %19
  %23 = load ptr, ptr getelementptr inbounds (%struct.GlobalContext, ptr @global_context, i64 0, i32 2), align 8
  %.not69 = icmp eq ptr %23, null
  br i1 %.not69, label %._crit_edge, label %24

24:                                               ; preds = %22
  %25 = getelementptr inbounds i8, ptr %23, i64 -8
  %26 = load i32, ptr %25, align 4
  %.not107 = icmp eq i32 %26, 0
  br i1 %.not107, label %._crit_edge, label %.lr.ph

.lr.ph:                                           ; preds = %24
  %27 = load ptr, ptr %6, align 8
  %28 = getelementptr inbounds i8, ptr %27, i64 8
  %29 = load ptr, ptr %28, align 8
  %30 = getelementptr inbounds i8, ptr %27, i64 16
  %wide.trip.count = zext i32 %26 to i64
  br label %31

31:                                               ; preds = %.lr.ph, %matches_subpath.exit.thread
  %indvars.iv = phi i64 [ 0, %.lr.ph ], [ %indvars.iv.next, %matches_subpath.exit.thread ]
  %32 = getelementptr inbounds ptr, ptr %23, i64 %indvars.iv
  %33 = load ptr, ptr %32, align 8
  %34 = load ptr, ptr %33, align 8
  %35 = getelementptr inbounds i8, ptr %34, i64 8
  %36 = load ptr, ptr %35, align 8
  %37 = icmp eq ptr %29, %36
  br i1 %37, label %.thread, label %38

38:                                               ; preds = %31
  %39 = getelementptr inbounds i8, ptr %34, i64 16
  %40 = load i32, ptr %39, align 8
  %41 = zext i32 %40 to i64
  %42 = load i32, ptr %30, align 8
  %43 = zext i32 %42 to i64
  %44 = sub nsw i64 %41, %43
  %45 = icmp slt i64 %44, 3
  br i1 %45, label %matches_subpath.exit.thread, label %46

46:                                               ; preds = %38
  %47 = getelementptr i8, ptr %36, i64 %44
  %48 = getelementptr i8, ptr %47, i64 -1
  %49 = load i8, ptr %48, align 1
  %.not.i = icmp eq i8 %49, 58
  br i1 %.not.i, label %50, label %matches_subpath.exit.thread

50:                                               ; preds = %46
  %51 = getelementptr i8, ptr %47, i64 -2
  %52 = load i8, ptr %51, align 1
  %.not16.i = icmp eq i8 %52, 58
  br i1 %.not16.i, label %matches_subpath.exit, label %matches_subpath.exit.thread

matches_subpath.exit:                             ; preds = %50
  %bcmp.i = tail call i32 @bcmp(ptr %47, ptr %29, i64 %43)
  %53 = icmp eq i32 %bcmp.i, 0
  br i1 %53, label %.thread, label %matches_subpath.exit.thread

matches_subpath.exit.thread:                      ; preds = %46, %50, %38, %matches_subpath.exit
  %indvars.iv.next = add nuw nsw i64 %indvars.iv, 1
  %exitcond.not = icmp eq i64 %indvars.iv.next, %wide.trip.count
  br i1 %exitcond.not, label %._crit_edge, label %31, !llvm.loop !27

._crit_edge:                                      ; preds = %matches_subpath.exit.thread, %22, %24
  %54 = load ptr, ptr getelementptr inbounds (%struct.GlobalContext, ptr @global_context, i64 0, i32 3), align 8
  %.not71 = icmp eq ptr %54, null
  br i1 %.not71, label %.thread125, label %55

.thread125:                                       ; preds = %._crit_edge
  %.pre128 = load ptr, ptr %6, align 8
  br label %.._crit_edge106_crit_edge

55:                                               ; preds = %._crit_edge
  %56 = getelementptr inbounds i8, ptr %54, i64 -8
  %57 = load i32, ptr %56, align 4
  %.not108 = icmp eq i32 %57, 0
  %.pre = load ptr, ptr %6, align 8
  br i1 %.not108, label %.._crit_edge106_crit_edge, label %.lr.ph105

.._crit_edge106_crit_edge:                        ; preds = %.thread125, %55
  %.pre130 = phi ptr [ %.pre128, %.thread125 ], [ %.pre, %55 ]
  %.phi.trans.insert = getelementptr inbounds i8, ptr %.pre130, i64 16
  %.pre119 = load i32, ptr %.phi.trans.insert, align 8
  %.phi.trans.insert120 = getelementptr inbounds i8, ptr %.pre130, i64 8
  %.pre121 = load ptr, ptr %.phi.trans.insert120, align 8
  br label %._crit_edge106

.lr.ph105:                                        ; preds = %55
  %58 = getelementptr inbounds i8, ptr %.pre, i64 8
  %59 = load ptr, ptr %58, align 8
  %60 = getelementptr inbounds i8, ptr %.pre, i64 16
  %wide.trip.count117 = zext i32 %57 to i64
  br label %61

61:                                               ; preds = %.lr.ph105, %matches_subpath.exit79.thread
  %indvars.iv114 = phi i64 [ 0, %.lr.ph105 ], [ %indvars.iv.next115, %matches_subpath.exit79.thread ]
  %62 = getelementptr inbounds ptr, ptr %54, i64 %indvars.iv114
  %63 = load ptr, ptr %62, align 8
  %64 = load ptr, ptr %63, align 8
  %65 = getelementptr inbounds i8, ptr %64, i64 8
  %66 = load ptr, ptr %65, align 8
  %67 = icmp eq ptr %59, %66
  br i1 %67, label %.thread, label %68

68:                                               ; preds = %61
  %69 = getelementptr inbounds i8, ptr %64, i64 16
  %70 = load i32, ptr %69, align 8
  %71 = zext i32 %70 to i64
  %72 = load i32, ptr %60, align 8
  %73 = zext i32 %72 to i64
  %74 = sub nsw i64 %71, %73
  %75 = icmp slt i64 %74, 3
  br i1 %75, label %matches_subpath.exit79.thread, label %76

76:                                               ; preds = %68
  %77 = getelementptr i8, ptr %66, i64 %74
  %78 = getelementptr i8, ptr %77, i64 -1
  %79 = load i8, ptr %78, align 1
  %.not.i75 = icmp eq i8 %79, 58
  br i1 %.not.i75, label %80, label %matches_subpath.exit79.thread

80:                                               ; preds = %76
  %81 = getelementptr i8, ptr %77, i64 -2
  %82 = load i8, ptr %81, align 1
  %.not16.i77 = icmp eq i8 %82, 58
  br i1 %.not16.i77, label %matches_subpath.exit79, label %matches_subpath.exit79.thread

matches_subpath.exit79:                           ; preds = %80
  %bcmp.i78 = tail call i32 @bcmp(ptr %77, ptr %59, i64 %73)
  %83 = icmp eq i32 %bcmp.i78, 0
  br i1 %83, label %.thread, label %matches_subpath.exit79.thread

matches_subpath.exit79.thread:                    ; preds = %76, %80, %68, %matches_subpath.exit79
  %indvars.iv.next115 = add nuw nsw i64 %indvars.iv114, 1
  %exitcond118.not = icmp eq i64 %indvars.iv.next115, %wide.trip.count117
  br i1 %exitcond118.not, label %._crit_edge106, label %61, !llvm.loop !28

.thread:                                          ; preds = %31, %matches_subpath.exit, %61, %matches_subpath.exit79
  %84 = phi ptr [ %66, %matches_subpath.exit79 ], [ %66, %61 ], [ %36, %matches_subpath.exit ], [ %36, %31 ]
  %85 = load ptr, ptr %9, align 8
  %86 = load i64, ptr %8, align 8
  tail call void (i64, ptr, ...) @sema_error_at(i64 %86, ptr noundef nonnull @.str.16, ptr noundef %85, ptr noundef %84) #10
  br label %90

._crit_edge106:                                   ; preds = %matches_subpath.exit79.thread, %.._crit_edge106_crit_edge
  %.pre129 = phi ptr [ %.pre130, %.._crit_edge106_crit_edge ], [ %.pre, %matches_subpath.exit79.thread ]
  %87 = phi ptr [ %.pre121, %.._crit_edge106_crit_edge ], [ %59, %matches_subpath.exit79.thread ]
  %88 = phi i32 [ %.pre119, %.._crit_edge106_crit_edge ], [ %72, %matches_subpath.exit79.thread ]
  %89 = load i64, ptr %.pre129, align 8
  tail call void (i64, ptr, ...) @sema_error_at(i64 %89, ptr noundef nonnull @.str.17, i32 noundef %88, ptr noundef %87) #10
  br label %90

90:                                               ; preds = %._crit_edge106, %.thread
  %91 = load ptr, ptr @poisoned_decl, align 8
  br label %103

92:                                               ; preds = %3
  %93 = call fastcc ptr @sema_resolve_no_path_symbol(ptr noundef %0, ptr noundef nonnull %4)
  br label %94

94:                                               ; preds = %12, %92
  %.059 = phi ptr [ %13, %12 ], [ %93, %92 ]
  %.not73 = icmp ne ptr %.059, null
  %95 = load ptr, ptr %4, align 8
  %.not74 = icmp eq ptr %95, null
  %or.cond = select i1 %.not73, i1 %.not74, i1 false
  br i1 %or.cond, label %100, label %.thread94

.thread94:                                        ; preds = %16, %14, %94
  %.05999 = phi ptr [ %.059, %94 ], [ null, %14 ], [ null, %16 ]
  %96 = load i8, ptr %11, align 1
  %97 = trunc i8 %96 to i1
  br i1 %97, label %103, label %98

98:                                               ; preds = %.thread94
  call fastcc void @sema_report_error_on_decl(ptr noundef %.05999, ptr noundef nonnull %4)
  %99 = load ptr, ptr @poisoned_decl, align 8
  br label %103

100:                                              ; preds = %94
  %101 = getelementptr inbounds i8, ptr %0, i64 16
  %102 = load ptr, ptr %101, align 8
  tail call void @unit_register_external_symbol(ptr noundef %102, ptr noundef nonnull %.059) #10
  br label %103

103:                                              ; preds = %.thread94, %19, %100, %98, %90
  %.058 = phi ptr [ %99, %98 ], [ %.059, %100 ], [ %91, %90 ], [ null, %19 ], [ null, %.thread94 ]
  ret ptr %.058
}